target datalayout = "e-m:e-p270:32:32-p271:32:32-p272:64:64-i64:64-i128:128-f80:128-n8:16:32:64-S128"
target triple = "x86_64-pc-linux-gnu"

%struct.darktable_t = type { %struct.dt_codepath_t, i32, i32, ptr, ptr, ptr, ptr, ptr, ptr, ptr, ptr, ptr, ptr, ptr, ptr, ptr, ptr, ptr, ptr, ptr, ptr, ptr, ptr, ptr, ptr, ptr, ptr, ptr, ptr, ptr, [64 x %struct.dt_pthread_mutex_t], %struct.dt_pthread_mutex_t, %struct.dt_pthread_mutex_t, %struct.dt_pthread_mutex_t, %struct.dt_pthread_mutex_t, %struct.dt_pthread_mutex_t, ptr, ptr, ptr, ptr, ptr, ptr, ptr, ptr, ptr, ptr, ptr, ptr, ptr, %struct.dt_lua_state_t, ptr, double, ptr, i32, [47 x i32], i32, i32, ptr, ptr, %struct.dt_sys_resources_t, %struct.dt_backthumb_t, %struct.dt_gimp_t }
%struct.dt_codepath_t = type { i8, [3 x i8] }
%struct.dt_pthread_mutex_t = type { %union.pthread_mutex_t }
%union.pthread_mutex_t = type { %struct.__pthread_mutex_s }
%struct.__pthread_mutex_s = type { i32, i32, i32, i32, i32, i16, i16, %struct.__pthread_internal_list }
%struct.__pthread_internal_list = type { ptr, ptr }
%struct.dt_lua_state_t = type { i32 }
%struct.dt_sys_resources_t = type { i64, i64, ptr, ptr, i32 }
%struct.dt_backthumb_t = type { double, double, i32, i32, i32, i32 }
%struct.dt_gimp_t = type { i32, ptr, ptr, i32, i32 }
%struct.dt_cache_t = type { %struct.dt_pthread_mutex_t, i64, i64, i64, ptr, ptr, ptr, ptr, ptr, ptr }
%struct.dt_cache_entry_t = type { ptr, i64, i64, ptr, %union.pthread_rwlock_t, i32, i32 }
%union.pthread_rwlock_t = type { %struct.__pthread_rwlock_arch_t }
%struct.__pthread_rwlock_arch_t = type { i32, i32, i32, i32, i32, i32, i32, i32, i8, [7 x i8], i64, i32 }
%struct.timeval = type { i64, i64 }

@darktable = external global %struct.darktable_t, align 8
@.str = private unnamed_addr constant [30 x i8] c"try+ wait time %.06fs mode %c\00", align 1
@.str.1 = private unnamed_addr constant [22 x i8] c"try- wait time %.06fs\00", align 1

; Function Attrs: inlinehint nounwind uwtable
define internal double @dt_get_wtime() #1 {
  %1 = alloca %struct.timeval, align 8
  call void @llvm.lifetime.start.p0(i64 16, ptr %1) #6
  %2 = call i32 @gettimeofday(ptr noundef %1, ptr noundef null) #6
  %3 = getelementptr inbounds nuw %struct.timeval, ptr %1, i32 0, i32 0
  %4 = load i64, ptr %3, align 8, !tbaa !84
  %5 = sub nsw i64 %4, 1290608000
  %6 = sitofp i64 %5 to double
  %7 = getelementptr inbounds nuw %struct.timeval, ptr %1, i32 0, i32 1
  %8 = load i64, ptr %7, align 8, !tbaa !86
  %9 = sitofp i64 %8 to double
  %10 = fmul reassoc nsz arcp contract afn double 0x3EB0C6F7A0B5ED8D, %9
  %11 = fadd reassoc nsz arcp contract afn double %6, %10
  call void @llvm.lifetime.end.p0(i64 16, ptr %1) #6
  ret double %11
}

; Function Attrs: inlinehint nounwind uwtable
define internal i32 @dt_pthread_mutex_unlock(ptr noundef %0) #1 {
  %2 = alloca ptr, align 8
  store ptr %0, ptr %2, align 8, !tbaa !26
  %3 = load ptr, ptr %2, align 8, !tbaa !26
  %4 = getelementptr inbounds nuw %struct.dt_pthread_mutex_t, ptr %3, i32 0, i32 0
  %5 = call i32 @pthread_mutex_unlock(ptr noundef %4) #6
  ret i32 %5
}

; Function Attrs: inlinehint nounwind uwtable
define internal i32 @dt_pthread_rwlock_tryrdlock(ptr noundef %0) #1 {
  %2 = alloca ptr, align 8
  %3 = alloca i32, align 4
  store ptr %0, ptr %2, align 8, !tbaa !28
  call void @llvm.lifetime.start.p0(i64 4, ptr %3) #6
  %4 = load ptr, ptr %2, align 8, !tbaa !28
  %5 = call i32 @pthread_rwlock_tryrdlock(ptr noundef %4) #6
  store i32 %5, ptr %3, align 4, !tbaa !38
  %6 = load i32, ptr %3, align 4, !tbaa !38
  call void @llvm.lifetime.end.p0(i64 4, ptr %3) #6
  ret i32 %6
}

; Function Attrs: inlinehint nounwind uwtable
define internal i32 @dt_pthread_rwlock_trywrlock(ptr noundef %0) #1 {
  %2 = alloca ptr, align 8
  %3 = alloca i32, align 4
  store ptr %0, ptr %2, align 8, !tbaa !28
  call void @llvm.lifetime.start.p0(i64 4, ptr %3) #6
  %4 = load ptr, ptr %2, align 8, !tbaa !28
  %5 = call i32 @pthread_rwlock_trywrlock(ptr noundef %4) #6
  store i32 %5, ptr %3, align 4, !tbaa !38
  %6 = load i32, ptr %3, align 4, !tbaa !38
  call void @llvm.lifetime.end.p0(i64 4, ptr %3) #6
  ret i32 %6
}

; Function Attrs: inlinehint nounwind uwtable
define internal i32 @dt_pthread_mutex_lock(ptr noundef %0) #1 {
  %2 = alloca ptr, align 8
  store ptr %0, ptr %2, align 8, !tbaa !26
  %3 = load ptr, ptr %2, align 8, !tbaa !26
  %4 = getelementptr inbounds nuw %struct.dt_pthread_mutex_t, ptr %3, i32 0, i32 0
  %5 = call i32 @pthread_mutex_lock(ptr noundef %4) #6
  ret i32 %5
}

; Function Attrs: inlinehint nounwind uwtable
define internal double @dt_get_debug_wtime() #1 {
  %1 = load i32, ptr getelementptr inbounds nuw (%struct.darktable_t, ptr @darktable, i32 0, i32 2), align 8, !tbaa !43
  %2 = icmp ne i32 %1, 0
  br i1 %2, label %3, label %5

3:                                                ; preds = %0
  %4 = call reassoc nsz arcp contract afn double @dt_get_wtime()
  br label %6

5:                                                ; preds = %0
  br label %6

6:                                                ; preds = %5, %3
  %7 = phi reassoc nsz arcp contract afn double [ %4, %3 ], [ 0.000000e+00, %5 ]
  ret double %7
}

; Function Attrs: nounwind uwtable
define ptr @dt_cache_testget(ptr noundef %0, i32 noundef %1, i8 noundef signext %2) #0 {
  %4 = alloca ptr, align 8
  %5 = alloca ptr, align 8
  %6 = alloca i32, align 4
  %7 = alloca i8, align 1
  %8 = alloca ptr, align 8
  %9 = alloca ptr, align 8
  %10 = alloca double, align 8
  %11 = alloca i32, align 4
  %12 = alloca ptr, align 8
  %13 = alloca i32, align 4
  %14 = alloca i32, align 4
  %15 = alloca double, align 8
  %16 = alloca double, align 8
  store ptr %0, ptr %5, align 8, !tbaa !6
  store i32 %1, ptr %6, align 4, !tbaa !38
  store i8 %2, ptr %7, align 1, !tbaa !39
  call void @llvm.lifetime.start.p0(i64 8, ptr %8) #6
  call void @llvm.lifetime.start.p0(i64 8, ptr %9) #6
  call void @llvm.lifetime.start.p0(i64 8, ptr %10) #6
  %17 = call reassoc nsz arcp contract afn double @dt_get_debug_wtime()
  store double %17, ptr %10, align 8, !tbaa !40
  %18 = load ptr, ptr %5, align 8, !tbaa !6
  %19 = getelementptr inbounds nuw %struct.dt_cache_t, ptr %18, i32 0, i32 0
  %20 = call i32 @dt_pthread_mutex_lock(ptr noundef %19)
  call void @llvm.lifetime.start.p0(i64 4, ptr %11) #6
  %21 = load ptr, ptr %5, align 8, !tbaa !6
  %22 = getelementptr inbounds nuw %struct.dt_cache_t, ptr %21, i32 0, i32 4
  %23 = load ptr, ptr %22, align 8, !tbaa !25
  %24 = load i32, ptr %6, align 4, !tbaa !38
  %25 = zext i32 %24 to i64
  %26 = inttoptr i64 %25 to ptr
  %27 = call i32 @g_hash_table_lookup_extended(ptr noundef %23, ptr noundef %26, ptr noundef %8, ptr noundef %9)
  store i32 %27, ptr %11, align 4, !tbaa !38
  %28 = load i32, ptr %11, align 4, !tbaa !38
  %29 = icmp ne i32 %28, 0
  br i1 %29, label %30, label %101

30:                                               ; preds = %3
  call void @llvm.lifetime.start.p0(i64 8, ptr %12) #6
  %31 = load ptr, ptr %9, align 8, !tbaa !28
  store ptr %31, ptr %12, align 8, !tbaa !32
  call void @llvm.lifetime.start.p0(i64 4, ptr %13) #6
  %32 = load i8, ptr %7, align 1, !tbaa !39
  %33 = sext i8 %32 to i32
  %34 = icmp eq i32 %33, 119
  br i1 %34, label %35, label %39

35:                                               ; preds = %30
  %36 = load ptr, ptr %12, align 8, !tbaa !32
  %37 = getelementptr inbounds nuw %struct.dt_cache_entry_t, ptr %36, i32 0, i32 4
  %38 = call i32 @dt_pthread_rwlock_trywrlock(ptr noundef %37)
  br label %43

39:                                               ; preds = %30
  %40 = load ptr, ptr %12, align 8, !tbaa !32
  %41 = getelementptr inbounds nuw %struct.dt_cache_entry_t, ptr %40, i32 0, i32 4
  %42 = call i32 @dt_pthread_rwlock_tryrdlock(ptr noundef %41)
  br label %43

43:                                               ; preds = %39, %35
  %44 = phi i32 [ %38, %35 ], [ %42, %39 ]
  store i32 %44, ptr %13, align 4, !tbaa !38
  %45 = load i32, ptr %13, align 4, !tbaa !38
  %46 = icmp ne i32 %45, 0
  br i1 %46, label %47, label %51

47:                                               ; preds = %43
  %48 = load ptr, ptr %5, align 8, !tbaa !6
  %49 = getelementptr inbounds nuw %struct.dt_cache_t, ptr %48, i32 0, i32 0
  %50 = call i32 @dt_pthread_mutex_unlock(ptr noundef %49)
  store ptr null, ptr %4, align 8
  store i32 1, ptr %14, align 4
  br label %100

51:                                               ; preds = %43
  %52 = load ptr, ptr %5, align 8, !tbaa !6
  %53 = getelementptr inbounds nuw %struct.dt_cache_t, ptr %52, i32 0, i32 5
  %54 = load ptr, ptr %53, align 8, !tbaa !18
  %55 = load ptr, ptr %12, align 8, !tbaa !32
  %56 = getelementptr inbounds nuw %struct.dt_cache_entry_t, ptr %55, i32 0, i32 3
  %57 = load ptr, ptr %56, align 8, !tbaa !42
  %58 = call ptr @g_list_remove_link(ptr noundef %54, ptr noundef %57)
  %59 = load ptr, ptr %5, align 8, !tbaa !6
  %60 = getelementptr inbounds nuw %struct.dt_cache_t, ptr %59, i32 0, i32 5
  store ptr %58, ptr %60, align 8, !tbaa !18
  %61 = load ptr, ptr %5, align 8, !tbaa !6
  %62 = getelementptr inbounds nuw %struct.dt_cache_t, ptr %61, i32 0, i32 5
  %63 = load ptr, ptr %62, align 8, !tbaa !18
  %64 = load ptr, ptr %12, align 8, !tbaa !32
  %65 = getelementptr inbounds nuw %struct.dt_cache_entry_t, ptr %64, i32 0, i32 3
  %66 = load ptr, ptr %65, align 8, !tbaa !42
  %67 = call ptr @g_list_concat(ptr noundef %63, ptr noundef %66)
  %68 = load ptr, ptr %5, align 8, !tbaa !6
  %69 = getelementptr inbounds nuw %struct.dt_cache_t, ptr %68, i32 0, i32 5
  store ptr %67, ptr %69, align 8, !tbaa !18
  %70 = load ptr, ptr %5, align 8, !tbaa !6
  %71 = getelementptr inbounds nuw %struct.dt_cache_t, ptr %70, i32 0, i32 0
  %72 = call i32 @dt_pthread_mutex_unlock(ptr noundef %71)
  call void @llvm.lifetime.start.p0(i64 8, ptr %15) #6
  %73 = call reassoc nsz arcp contract afn double @dt_get_debug_wtime()
  store double %73, ptr %15, align 8, !tbaa !40
  %74 = load double, ptr %15, align 8, !tbaa !40
  %75 = load double, ptr %10, align 8, !tbaa !40
  %76 = fsub reassoc nsz arcp contract afn double %74, %75
  %77 = fcmp reassoc nsz arcp contract afn ogt double %76, 1.000000e-01
  br i1 %77, label %78, label %93

78:                                               ; preds = %51
  br label %79

79:                                               ; preds = %78
  %80 = load i32, ptr getelementptr inbounds nuw (%struct.darktable_t, ptr @darktable, i32 0, i32 2), align 8, !tbaa !43
  %81 = xor i32 %80, -1
  %82 = and i32 0, %81
  %83 = icmp ne i32 %82, 0
  br i1 %83, label %90, label %84

84:                                               ; preds = %79
  %85 = load double, ptr %15, align 8, !tbaa !40
  %86 = load double, ptr %10, align 8, !tbaa !40
  %87 = fsub reassoc nsz arcp contract afn double %85, %86
  %88 = load i8, ptr %7, align 1, !tbaa !39
  %89 = sext i8 %88 to i32
  call void (ptr, ...) @dt_print_ext(ptr noundef @.str, double noundef %87, i32 noundef %89)
  br label %90

90:                                               ; preds = %84, %79
  br label %91

91:                                               ; preds = %90
  br label %92

92:                                               ; preds = %91
  br label %93

93:                                               ; preds = %92, %51
  %94 = load i8, ptr %7, align 1, !tbaa !39
  %95 = sext i8 %94 to i32
  %96 = icmp eq i32 %95, 119
  br i1 %96, label %97, label %98

97:                                               ; preds = %93
  br label %98

98:                                               ; preds = %97, %93
  %99 = load ptr, ptr %12, align 8, !tbaa !32
  store ptr %99, ptr %4, align 8
  store i32 1, ptr %14, align 4
  call void @llvm.lifetime.end.p0(i64 8, ptr %15) #6
  br label %100

100:                                              ; preds = %98, %47
  call void @llvm.lifetime.end.p0(i64 4, ptr %13) #6
  call void @llvm.lifetime.end.p0(i64 8, ptr %12) #6
  br label %124

101:                                              ; preds = %3
  %102 = load ptr, ptr %5, align 8, !tbaa !6
  %103 = getelementptr inbounds nuw %struct.dt_cache_t, ptr %102, i32 0, i32 0
  %104 = call i32 @dt_pthread_mutex_unlock(ptr noundef %103)
  call void @llvm.lifetime.start.p0(i64 8, ptr %16) #6
  %105 = call reassoc nsz arcp contract afn double @dt_get_debug_wtime()
  store double %105, ptr %16, align 8, !tbaa !40
  %106 = load double, ptr %16, align 8, !tbaa !40
  %107 = load double, ptr %10, align 8, !tbaa !40
  %108 = fsub reassoc nsz arcp contract afn double %106, %107
  %109 = fcmp reassoc nsz arcp contract afn ogt double %108, 1.000000e-01
  br i1 %109, label %110, label %123

110:                                              ; preds = %101
  br label %111

111:                                              ; preds = %110
  %112 = load i32, ptr getelementptr inbounds nuw (%struct.darktable_t, ptr @darktable, i32 0, i32 2), align 8, !tbaa !43
  %113 = xor i32 %112, -1
  %114 = and i32 0, %113
  %115 = icmp ne i32 %114, 0
  br i1 %115, label %120, label %116

116:                                              ; preds = %111
  %117 = load double, ptr %16, align 8, !tbaa !40
  %118 = load double, ptr %10, align 8, !tbaa !40
  %119 = fsub reassoc nsz arcp contract afn double %117, %118
  call void (ptr, ...) @dt_print_ext(ptr noundef @.str.1, double noundef %119)
  br label %120

120:                                              ; preds = %116, %111
  br label %121

121:                                              ; preds = %120
  br label %122

122:                                              ; preds = %121
  br label %123

123:                                              ; preds = %122, %101
  store ptr null, ptr %4, align 8
  store i32 1, ptr %14, align 4
  call void @llvm.lifetime.end.p0(i64 8, ptr %16) #6
  br label %124

124:                                              ; preds = %123, %100
  call void @llvm.lifetime.end.p0(i64 4, ptr %11) #6
  call void @llvm.lifetime.end.p0(i64 8, ptr %10) #6
  call void @llvm.lifetime.end.p0(i64 8, ptr %9) #6
  call void @llvm.lifetime.end.p0(i64 8, ptr %8) #6
  %125 = load ptr, ptr %4, align 8
  ret ptr %125
}