; Function Attrs: nounwind uwtable
define ptr @dt_cache_testget(ptr noundef %0, i32 noundef %1, i8 noundef signext %2) local_unnamed_addr #0 {
  %4 = alloca %struct.timeval, align 8
  %5 = alloca %struct.timeval, align 8
  %6 = alloca %struct.timeval, align 8
  %7 = alloca ptr, align 8
  %8 = alloca ptr, align 8
  call void @llvm.lifetime.start.p0(i64 8, ptr nonnull %7) #8
  call void @llvm.lifetime.start.p0(i64 8, ptr nonnull %8) #8
  %9 = load i32, ptr getelementptr inbounds nuw (i8, ptr @darktable, i64 8), align 8, !tbaa !28
  %.not.i = icmp eq i32 %9, 0
  br i1 %.not.i, label %dt_get_debug_wtime.exit, label %10

10:                                               ; preds = %3
  call void @llvm.lifetime.start.p0(i64 16, ptr nonnull %6) #8
  %11 = call i32 @gettimeofday(ptr noundef nonnull %6, ptr noundef null) #8
  %12 = load i64, ptr %6, align 8, !tbaa !63
  %13 = add nsw i64 %12, -1290608000
  %14 = sitofp i64 %13 to double
  %15 = getelementptr inbounds nuw i8, ptr %6, i64 8
  %16 = load i64, ptr %15, align 8, !tbaa !65
  %17 = sitofp i64 %16 to double
  %18 = fmul reassoc nsz arcp contract afn double %17, 0x3EB0C6F7A0B5ED8D
  %19 = fadd reassoc nsz arcp contract afn double %18, %14
  call void @llvm.lifetime.end.p0(i64 16, ptr nonnull %6) #8
  br label %dt_get_debug_wtime.exit

dt_get_debug_wtime.exit:                          ; preds = %3, %10
  %20 = phi reassoc nsz arcp contract afn double [ %19, %10 ], [ 0.000000e+00, %3 ]
  %21 = tail call i32 @pthread_mutex_lock(ptr noundef %0) #8
  %22 = getelementptr inbounds nuw i8, ptr %0, i64 64
  %23 = load ptr, ptr %22, align 8, !tbaa !18
  %24 = zext i32 %1 to i64
  %25 = inttoptr i64 %24 to ptr
  %26 = call i32 @g_hash_table_lookup_extended(ptr noundef %23, ptr noundef %25, ptr noundef nonnull %7, ptr noundef nonnull %8) #8
  %.not = icmp eq i32 %26, 0
  br i1 %.not, label %64, label %27

27:                                               ; preds = %dt_get_debug_wtime.exit
  %28 = load ptr, ptr %8, align 8, !tbaa !27
  %29 = sext i8 %2 to i32
  %30 = icmp eq i8 %2, 119
  %31 = getelementptr inbounds nuw i8, ptr %28, i64 32
  br i1 %30, label %32, label %34

32:                                               ; preds = %27
  %33 = call i32 @pthread_rwlock_trywrlock(ptr noundef nonnull %31) #8
  br label %36

34:                                               ; preds = %27
  %35 = call i32 @pthread_rwlock_tryrdlock(ptr noundef nonnull %31) #8
  br label %36

36:                                               ; preds = %34, %32
  %37 = phi i32 [ %33, %32 ], [ %35, %34 ]
  %.not30 = icmp eq i32 %37, 0
  br i1 %.not30, label %40, label %38

38:                                               ; preds = %36
  %39 = call i32 @pthread_mutex_unlock(ptr noundef nonnull %0) #8
  br label %81

40:                                               ; preds = %36
  %41 = getelementptr inbounds nuw i8, ptr %0, i64 72
  %42 = load ptr, ptr %41, align 8, !tbaa !15
  %43 = getelementptr inbounds nuw i8, ptr %28, i64 24
  %44 = load ptr, ptr %43, align 8, !tbaa !66
  %45 = call ptr @g_list_remove_link(ptr noundef %42, ptr noundef %44) #8
  store ptr %45, ptr %41, align 8, !tbaa !15
  %46 = load ptr, ptr %43, align 8, !tbaa !66
  %47 = call ptr @g_list_concat(ptr noundef %45, ptr noundef %46) #8
  store ptr %47, ptr %41, align 8, !tbaa !15
  %48 = call i32 @pthread_mutex_unlock(ptr noundef nonnull %0) #8
  %49 = load i32, ptr getelementptr inbounds nuw (i8, ptr @darktable, i64 8), align 8, !tbaa !28
  %.not.i31 = icmp eq i32 %49, 0
  br i1 %.not.i31, label %dt_get_debug_wtime.exit32, label %50

50:                                               ; preds = %40
  call void @llvm.lifetime.start.p0(i64 16, ptr nonnull %5) #8
  %51 = call i32 @gettimeofday(ptr noundef nonnull %5, ptr noundef null) #8
  %52 = load i64, ptr %5, align 8, !tbaa !63
  %53 = add nsw i64 %52, -1290608000
  %54 = sitofp i64 %53 to double
  %55 = getelementptr inbounds nuw i8, ptr %5, i64 8
  %56 = load i64, ptr %55, align 8, !tbaa !65
  %57 = sitofp i64 %56 to double
  %58 = fmul reassoc nsz arcp contract afn double %57, 0x3EB0C6F7A0B5ED8D
  %59 = fadd reassoc nsz arcp contract afn double %58, %54
  call void @llvm.lifetime.end.p0(i64 16, ptr nonnull %5) #8
  br label %dt_get_debug_wtime.exit32

dt_get_debug_wtime.exit32:                        ; preds = %40, %50
  %60 = phi reassoc nsz arcp contract afn double [ %59, %50 ], [ 0.000000e+00, %40 ]
  %61 = fsub reassoc nsz arcp contract afn double %60, %20
  %62 = fcmp reassoc nsz arcp contract afn ogt double %61, 1.000000e-01
  br i1 %62, label %63, label %81

63:                                               ; preds = %dt_get_debug_wtime.exit32
  call void (ptr, ...) @dt_print_ext(ptr noundef nonnull @.str, double noundef %61, i32 noundef %29) #8
  br label %81

64:                                               ; preds = %dt_get_debug_wtime.exit
  %65 = call i32 @pthread_mutex_unlock(ptr noundef nonnull %0) #8
  %66 = load i32, ptr getelementptr inbounds nuw (i8, ptr @darktable, i64 8), align 8, !tbaa !28
  %.not.i33 = icmp eq i32 %66, 0
  br i1 %.not.i33, label %dt_get_debug_wtime.exit34, label %67

67:                                               ; preds = %64
  call void @llvm.lifetime.start.p0(i64 16, ptr nonnull %4) #8
  %68 = call i32 @gettimeofday(ptr noundef nonnull %4, ptr noundef null) #8
  %69 = load i64, ptr %4, align 8, !tbaa !63
  %70 = add nsw i64 %69, -1290608000
  %71 = sitofp i64 %70 to double
  %72 = getelementptr inbounds nuw i8, ptr %4, i64 8
  %73 = load i64, ptr %72, align 8, !tbaa !65
  %74 = sitofp i64 %73 to double
  %75 = fmul reassoc nsz arcp contract afn double %74, 0x3EB0C6F7A0B5ED8D
  %76 = fadd reassoc nsz arcp contract afn double %75, %71
  call void @llvm.lifetime.end.p0(i64 16, ptr nonnull %4) #8
  br label %dt_get_debug_wtime.exit34

dt_get_debug_wtime.exit34:                        ; preds = %64, %67
  %77 = phi reassoc nsz arcp contract afn double [ %76, %67 ], [ 0.000000e+00, %64 ]
  %78 = fsub reassoc nsz arcp contract afn double %77, %20
  %79 = fcmp reassoc nsz arcp contract afn ogt double %78, 1.000000e-01
  br i1 %79, label %80, label %81

80:                                               ; preds = %dt_get_debug_wtime.exit34
  call void (ptr, ...) @dt_print_ext(ptr noundef nonnull @.str.1, double noundef %78) #8
  br label %81

81:                                               ; preds = %dt_get_debug_wtime.exit34, %80, %38, %63, %dt_get_debug_wtime.exit32
  %.1 = phi ptr [ null, %38 ], [ %28, %63 ], [ %28, %dt_get_debug_wtime.exit32 ], [ null, %80 ], [ null, %dt_get_debug_wtime.exit34 ]
  call void @llvm.lifetime.end.p0(i64 8, ptr nonnull %8) #8
  call void @llvm.lifetime.end.p0(i64 8, ptr nonnull %7) #8
  ret ptr %.1
}